target datalayout = "e-m:e-p270:32:32-p271:32:32-p272:64:64-i64:64-i128:128-f80:128-n8:16:32:64-S128"
target triple = "x86_64-unknown-linux-gnu"

%struct.BlockdevCreateOptions = type { i32, %union.anon.16 }
%union.anon.16 = type { %struct.BlockdevCreateOptionsQcow2 }
%struct.BlockdevCreateOptionsQcow2 = type { ptr, ptr, i8, i8, i8, i8, i64, i8, i32, ptr, i8, i32, ptr, i8, i64, i8, i32, i8, i8, i8, i64, i8, i32 }
%struct.BlockdevCreateOptionsVmdk = type { ptr, i64, i8, ptr, i8, i32, ptr, i8, i32, ptr, ptr, i8, i8 }

@.str.24 = private unnamed_addr constant [21 x i8] c"../qemu/block/vmdk.c\00", align 1
@__func__.vmdk_co_create = private unnamed_addr constant [15 x i8] c"vmdk_co_create\00", align 1
@.str.89 = private unnamed_addr constant [43 x i8] c"Image size must be a multiple of 512 bytes\00", align 1

; Function Attrs: nounwind sspstrong uwtable
define internal i32 @vmdk_co_create(ptr noundef %create_options, ptr noundef %errp) #0 {
entry:
  %retval = alloca i32, align 4
  %create_options.addr = alloca ptr, align 8
  %errp.addr = alloca ptr, align 8
  %opts = alloca ptr, align 8
  store ptr %create_options, ptr %create_options.addr, align 8
  store ptr %errp, ptr %errp.addr, align 8
  %0 = load ptr, ptr %create_options.addr, align 8
  %u = getelementptr inbounds %struct.BlockdevCreateOptions, ptr %0, i32 0, i32 1
  store ptr %u, ptr %opts, align 8
  %1 = load ptr, ptr %opts, align 8
  %size = getelementptr inbounds %struct.BlockdevCreateOptionsVmdk, ptr %1, i32 0, i32 1
  %2 = load i64, ptr %size, align 8
  %rem = urem i64 %2, 512
  %cmp = icmp eq i64 %rem, 0
  br i1 %cmp, label %if.end, label %if.then

if.then:                                          ; preds = %entry
  %3 = load ptr, ptr %errp.addr, align 8
  call void (ptr, ptr, i32, ptr, ptr, ...) @error_setg_internal(ptr noundef %3, ptr noundef @.str.24, i32 noundef 2868, ptr noundef @__func__.vmdk_co_create, ptr noundef @.str.89)
  store i32 -22, ptr %retval, align 4
  br label %return

if.end:                                           ; preds = %entry
  %4 = load ptr, ptr %opts, align 8
  %size1 = getelementptr inbounds %struct.BlockdevCreateOptionsVmdk, ptr %4, i32 0, i32 1
  %5 = load i64, ptr %size1, align 8
  %6 = load ptr, ptr %opts, align 8
  %subformat = getelementptr inbounds %struct.BlockdevCreateOptionsVmdk, ptr %6, i32 0, i32 5
  %7 = load i32, ptr %subformat, align 4
  %8 = load ptr, ptr %opts, align 8
  %adapter_type = getelementptr inbounds %struct.BlockdevCreateOptionsVmdk, ptr %8, i32 0, i32 8
  %9 = load i32, ptr %adapter_type, align 4
  %10 = load ptr, ptr %opts, align 8
  %backing_file = getelementptr inbounds %struct.BlockdevCreateOptionsVmdk, ptr %10, i32 0, i32 6
  %11 = load ptr, ptr %backing_file, align 8
  %12 = load ptr, ptr %opts, align 8
  %hwversion = getelementptr inbounds %struct.BlockdevCreateOptionsVmdk, ptr %12, i32 0, i32 9
  %13 = load ptr, ptr %hwversion, align 8
  %14 = load ptr, ptr %opts, align 8
  %toolsversion = getelementptr inbounds %struct.BlockdevCreateOptionsVmdk, ptr %14, i32 0, i32 10
  %15 = load ptr, ptr %toolsversion, align 8
  %16 = load ptr, ptr %opts, align 8
  %zeroed_grain = getelementptr inbounds %struct.BlockdevCreateOptionsVmdk, ptr %16, i32 0, i32 12
  %17 = load i8, ptr %zeroed_grain, align 1
  %tobool = trunc i8 %17 to i1
  %18 = load ptr, ptr %opts, align 8
  %19 = load ptr, ptr %errp.addr, align 8
  %call = call i32 @vmdk_co_do_create(i64 noundef %5, i32 noundef %7, i32 noundef %9, ptr noundef %11, ptr noundef %13, ptr noundef %15, i1 noundef zeroext false, i1 noundef zeroext %tobool, ptr noundef @vmdk_co_create_cb, ptr noundef %18, ptr noundef %19)
  store i32 %call, ptr %retval, align 4
  br label %return

return:                                           ; preds = %if.end, %if.then
  %20 = load i32, ptr %retval, align 4
  ret i32 %20
}