; Function Attrs: nounwind sspstrong uwtable
define internal range(i32 -2147483648, 1) i32 @vmdk_co_create(ptr noundef %create_options, ptr noundef %errp) #0 {
entry:
  %size = getelementptr inbounds nuw i8, ptr %create_options, i64 16
  %0 = load i64, ptr %size, align 8
  %rem = and i64 %0, 511
  %cmp = icmp eq i64 %rem, 0
  br i1 %cmp, label %if.end, label %if.then

if.then:                                          ; preds = %entry
  tail call void (ptr, ptr, i32, ptr, ptr, ...) @error_setg_internal(ptr noundef %errp, ptr noundef nonnull @.str.24, i32 noundef 2868, ptr noundef nonnull @__func__.vmdk_co_create, ptr noundef nonnull @.str.89) #15
  br label %return

if.end:                                           ; preds = %entry
  %u = getelementptr inbounds nuw i8, ptr %create_options, i64 8
  %subformat = getelementptr inbounds nuw i8, ptr %create_options, i64 44
  %1 = load i32, ptr %subformat, align 4
  %adapter_type = getelementptr inbounds nuw i8, ptr %create_options, i64 60
  %2 = load i32, ptr %adapter_type, align 4
  %backing_file = getelementptr inbounds nuw i8, ptr %create_options, i64 48
  %3 = load ptr, ptr %backing_file, align 8
  %hwversion = getelementptr inbounds nuw i8, ptr %create_options, i64 64
  %4 = load ptr, ptr %hwversion, align 8
  %toolsversion = getelementptr inbounds nuw i8, ptr %create_options, i64 72
  %5 = load ptr, ptr %toolsversion, align 8
  %zeroed_grain = getelementptr inbounds nuw i8, ptr %create_options, i64 81
  %6 = load i8, ptr %zeroed_grain, align 1
  %tobool = trunc i8 %6 to i1
  %call = tail call i32 @vmdk_co_do_create(i64 noundef %0, i32 noundef %1, i32 noundef %2, ptr noundef %3, ptr noundef %4, ptr noundef %5, i1 noundef zeroext false, i1 noundef zeroext %tobool, ptr noundef nonnull @vmdk_co_create_cb, ptr noundef nonnull %u, ptr noundef %errp)
  br label %return

return:                                           ; preds = %if.end, %if.then
  %retval.0 = phi i32 [ %call, %if.end ], [ -22, %if.then ]
  ret i32 %retval.0
}